target datalayout = "e-m:e-p270:32:32-p271:32:32-p272:64:64-i64:64-i128:128-f80:128-n8:16:32:64-S128"
target triple = "x86_64-pc-linux-gnu"

%struct.DdNode = type { i32, i32, ptr, %union.anon, i64 }
%union.anon = type { %struct.DdChildren }
%struct.DdChildren = type { ptr, ptr }
%struct.NodeStat = type { i32, i32 }

; Function Attrs: nounwind uwtable
define internal ptr @CreateBotDist(ptr noundef %0, ptr noundef %1) #0 {
  %3 = alloca ptr, align 8
  %4 = alloca ptr, align 8
  %5 = alloca ptr, align 8
  %6 = alloca ptr, align 8
  %7 = alloca ptr, align 8
  %8 = alloca ptr, align 8
  %9 = alloca i32, align 4
  %10 = alloca i32, align 4
  %11 = alloca i32, align 4
  %12 = alloca ptr, align 8
  %13 = alloca ptr, align 8
  %14 = alloca ptr, align 8
  %15 = alloca i32, align 4
  store ptr %0, ptr %4, align 8, !tbaa !8
  store ptr %1, ptr %5, align 8, !tbaa !38
  call void @llvm.lifetime.start.p0(i64 8, ptr %6) #5
  call void @llvm.lifetime.start.p0(i64 8, ptr %7) #5
  call void @llvm.lifetime.start.p0(i64 8, ptr %8) #5
  call void @llvm.lifetime.start.p0(i64 4, ptr %9) #5
  call void @llvm.lifetime.start.p0(i64 4, ptr %10) #5
  call void @llvm.lifetime.start.p0(i64 4, ptr %11) #5
  call void @llvm.lifetime.start.p0(i64 8, ptr %12) #5
  call void @llvm.lifetime.start.p0(i64 8, ptr %13) #5
  call void @llvm.lifetime.start.p0(i64 8, ptr %14) #5
  %16 = load ptr, ptr %4, align 8, !tbaa !8
  %17 = ptrtoint ptr %16 to i64
  %18 = and i64 %17, -2
  %19 = inttoptr i64 %18 to ptr
  store ptr %19, ptr %6, align 8, !tbaa !8
  %20 = load ptr, ptr %5, align 8, !tbaa !38
  %21 = load ptr, ptr %6, align 8, !tbaa !8
  %22 = call i32 @st__lookup(ptr noundef %20, ptr noundef %21, ptr noundef %12)
  %23 = icmp ne i32 %22, 0
  br i1 %23, label %24, label %30

24:                                               ; preds = %2
  %25 = load ptr, ptr %12, align 8, !tbaa !40
  %26 = getelementptr inbounds nuw %struct.NodeStat, ptr %25, i32 0, i32 1
  %27 = load i32, ptr %26, align 4, !tbaa !44
  %28 = add nsw i32 %27, 1
  store i32 %28, ptr %26, align 4, !tbaa !44
  %29 = load ptr, ptr %12, align 8, !tbaa !40
  store ptr %29, ptr %3, align 8
  store i32 1, ptr %15, align 4
  br label %106

30:                                               ; preds = %2
  %31 = load ptr, ptr %6, align 8, !tbaa !8
  %32 = getelementptr inbounds nuw %struct.DdNode, ptr %31, i32 0, i32 3
  %33 = getelementptr inbounds nuw %struct.DdChildren, ptr %32, i32 0, i32 0
  %34 = load ptr, ptr %33, align 8, !tbaa !66
  store ptr %34, ptr %7, align 8, !tbaa !8
  %35 = load ptr, ptr %6, align 8, !tbaa !8
  %36 = getelementptr inbounds nuw %struct.DdNode, ptr %35, i32 0, i32 3
  %37 = getelementptr inbounds nuw %struct.DdChildren, ptr %36, i32 0, i32 1
  %38 = load ptr, ptr %37, align 8, !tbaa !66
  store ptr %38, ptr %8, align 8, !tbaa !8
  %39 = load ptr, ptr %7, align 8, !tbaa !8
  %40 = ptrtoint ptr %39 to i64
  %41 = load ptr, ptr %4, align 8, !tbaa !8
  %42 = ptrtoint ptr %41 to i64
  %43 = and i64 %42, 1
  %44 = trunc i64 %43 to i32
  %45 = sext i32 %44 to i64
  %46 = xor i64 %40, %45
  %47 = inttoptr i64 %46 to ptr
  store ptr %47, ptr %7, align 8, !tbaa !8
  %48 = load ptr, ptr %8, align 8, !tbaa !8
  %49 = ptrtoint ptr %48 to i64
  %50 = load ptr, ptr %4, align 8, !tbaa !8
  %51 = ptrtoint ptr %50 to i64
  %52 = and i64 %51, 1
  %53 = trunc i64 %52 to i32
  %54 = sext i32 %53 to i64
  %55 = xor i64 %49, %54
  %56 = inttoptr i64 %55 to ptr
  store ptr %56, ptr %8, align 8, !tbaa !8
  %57 = load ptr, ptr %7, align 8, !tbaa !8
  %58 = load ptr, ptr %5, align 8, !tbaa !38
  %59 = call ptr @CreateBotDist(ptr noundef %57, ptr noundef %58)
  store ptr %59, ptr %13, align 8, !tbaa !40
  %60 = load ptr, ptr %13, align 8, !tbaa !40
  %61 = icmp eq ptr %60, null
  br i1 %61, label %62, label %63

62:                                               ; preds = %30
  store ptr null, ptr %3, align 8
  store i32 1, ptr %15, align 4
  br label %106

63:                                               ; preds = %30
  %64 = load ptr, ptr %13, align 8, !tbaa !40
  %65 = getelementptr inbounds nuw %struct.NodeStat, ptr %64, i32 0, i32 0
  %66 = load i32, ptr %65, align 4, !tbaa !42
  store i32 %66, ptr %10, align 4, !tbaa !12
  %67 = load ptr, ptr %8, align 8, !tbaa !8
  %68 = load ptr, ptr %5, align 8, !tbaa !38
  %69 = call ptr @CreateBotDist(ptr noundef %67, ptr noundef %68)
  store ptr %69, ptr %14, align 8, !tbaa !40
  %70 = load ptr, ptr %14, align 8, !tbaa !40
  %71 = icmp eq ptr %70, null
  br i1 %71, label %72, label %73

72:                                               ; preds = %63
  store ptr null, ptr %3, align 8
  store i32 1, ptr %15, align 4
  br label %106

73:                                               ; preds = %63
  %74 = load ptr, ptr %14, align 8, !tbaa !40
  %75 = getelementptr inbounds nuw %struct.NodeStat, ptr %74, i32 0, i32 0
  %76 = load i32, ptr %75, align 4, !tbaa !42
  store i32 %76, ptr %11, align 4, !tbaa !12
  %77 = load i32, ptr %10, align 4, !tbaa !12
  %78 = load i32, ptr %11, align 4, !tbaa !12
  %79 = icmp sgt i32 %77, %78
  br i1 %79, label %80, label %83

80:                                               ; preds = %73
  %81 = load i32, ptr %10, align 4, !tbaa !12
  %82 = add nsw i32 %81, 1
  br label %86

83:                                               ; preds = %73
  %84 = load i32, ptr %11, align 4, !tbaa !12
  %85 = add nsw i32 %84, 1
  br label %86

86:                                               ; preds = %83, %80
  %87 = phi i32 [ %82, %80 ], [ %85, %83 ]
  store i32 %87, ptr %9, align 4, !tbaa !12
  %88 = call noalias ptr @malloc(i64 noundef 8) #6
  store ptr %88, ptr %12, align 8, !tbaa !40
  %89 = load ptr, ptr %12, align 8, !tbaa !40
  %90 = icmp eq ptr %89, null
  br i1 %90, label %91, label %92

91:                                               ; preds = %86
  store ptr null, ptr %3, align 8
  store i32 1, ptr %15, align 4
  br label %106

92:                                               ; preds = %86
  %93 = load i32, ptr %9, align 4, !tbaa !12
  %94 = load ptr, ptr %12, align 8, !tbaa !40
  %95 = getelementptr inbounds nuw %struct.NodeStat, ptr %94, i32 0, i32 0
  store i32 %93, ptr %95, align 4, !tbaa !42
  %96 = load ptr, ptr %12, align 8, !tbaa !40
  %97 = getelementptr inbounds nuw %struct.NodeStat, ptr %96, i32 0, i32 1
  store i32 1, ptr %97, align 4, !tbaa !44
  %98 = load ptr, ptr %5, align 8, !tbaa !38
  %99 = load ptr, ptr %6, align 8, !tbaa !8
  %100 = load ptr, ptr %12, align 8, !tbaa !40
  %101 = call i32 @st__insert(ptr noundef %98, ptr noundef %99, ptr noundef %100)
  %102 = icmp eq i32 %101, -10000
  br i1 %102, label %103, label %104

103:                                              ; preds = %92
  store ptr null, ptr %3, align 8
  store i32 1, ptr %15, align 4
  br label %106

104:                                              ; preds = %92
  %105 = load ptr, ptr %12, align 8, !tbaa !40
  store ptr %105, ptr %3, align 8
  store i32 1, ptr %15, align 4
  br label %106

106:                                              ; preds = %104, %103, %91, %72, %62, %24
  call void @llvm.lifetime.end.p0(i64 8, ptr %14) #5
  call void @llvm.lifetime.end.p0(i64 8, ptr %13) #5
  call void @llvm.lifetime.end.p0(i64 8, ptr %12) #5
  call void @llvm.lifetime.end.p0(i64 4, ptr %11) #5
  call void @llvm.lifetime.end.p0(i64 4, ptr %10) #5
  call void @llvm.lifetime.end.p0(i64 4, ptr %9) #5
  call void @llvm.lifetime.end.p0(i64 8, ptr %8) #5
  call void @llvm.lifetime.end.p0(i64 8, ptr %7) #5
  call void @llvm.lifetime.end.p0(i64 8, ptr %6) #5
  %107 = load ptr, ptr %3, align 8
  ret ptr %107
}