; Function Attrs: nounwind uwtable
define internal fastcc ptr @CreateBotDist(ptr noundef %0, ptr noundef nonnull %1) unnamed_addr #0 {
  %3 = alloca ptr, align 8
  call void @llvm.lifetime.start.p0(i64 8, ptr nonnull %3) #8
  %4 = ptrtoint ptr %0 to i64
  %5 = and i64 %4, -2
  %6 = inttoptr i64 %5 to ptr
  %7 = call i32 @st__lookup(ptr noundef nonnull %1, ptr noundef %6, ptr noundef nonnull %3) #8
  %.not = icmp eq i32 %7, 0
  br i1 %.not, label %13, label %8

8:                                                ; preds = %2
  %9 = load ptr, ptr %3, align 8, !tbaa !55
  %10 = getelementptr inbounds nuw i8, ptr %9, i64 4
  %11 = load i32, ptr %10, align 4, !tbaa !34
  %12 = add nsw i32 %11, 1
  store i32 %12, ptr %10, align 4, !tbaa !34
  br label %41

13:                                               ; preds = %2
  %14 = getelementptr inbounds nuw i8, ptr %6, i64 16
  %15 = load ptr, ptr %14, align 8, !tbaa !52
  %16 = getelementptr inbounds nuw i8, ptr %6, i64 24
  %17 = load ptr, ptr %16, align 8, !tbaa !52
  %18 = ptrtoint ptr %15 to i64
  %19 = and i64 %4, 1
  %20 = xor i64 %19, %18
  %21 = inttoptr i64 %20 to ptr
  %22 = call fastcc ptr @CreateBotDist(ptr noundef %21, ptr noundef %1)
  %23 = icmp eq ptr %22, null
  br i1 %23, label %41, label %24

24:                                               ; preds = %13
  %25 = ptrtoint ptr %17 to i64
  %26 = xor i64 %19, %25
  %27 = inttoptr i64 %26 to ptr
  %28 = load i32, ptr %22, align 4, !tbaa !32
  %29 = call fastcc ptr @CreateBotDist(ptr noundef %27, ptr noundef %1)
  %30 = icmp eq ptr %29, null
  br i1 %30, label %41, label %31

31:                                               ; preds = %24
  %32 = load i32, ptr %29, align 4, !tbaa !32
  %33 = call noalias dereferenceable_or_null(8) ptr @malloc(i64 noundef 8) #9
  store ptr %33, ptr %3, align 8, !tbaa !55
  %34 = icmp eq ptr %33, null
  br i1 %34, label %41, label %35

35:                                               ; preds = %31
  %.v = call i32 @llvm.smax.i32(i32 %28, i32 %32)
  %36 = add nsw i32 %.v, 1
  store i32 %36, ptr %33, align 4, !tbaa !32
  %37 = getelementptr inbounds nuw i8, ptr %33, i64 4
  store i32 1, ptr %37, align 4, !tbaa !34
  %38 = call i32 @st__insert(ptr noundef nonnull %1, ptr noundef nonnull %6, ptr noundef nonnull %33) #8
  %39 = icmp eq i32 %38, -10000
  %40 = load ptr, ptr %3, align 8
  %spec.select = select i1 %39, ptr null, ptr %40
  br label %41

41:                                               ; preds = %35, %31, %24, %13, %8
  %.0 = phi ptr [ %9, %8 ], [ null, %13 ], [ null, %24 ], [ null, %31 ], [ %spec.select, %35 ]
  call void @llvm.lifetime.end.p0(i64 8, ptr nonnull %3) #8
  ret ptr %.0
}